; Function Attrs: nounwind uwtable
define dso_local range(i32 0, 12) i32 @lzma_index_decoder_init(ptr noundef %0, ptr noundef %1, ptr noundef %2, i64 noundef %3) #0 {
  %5 = getelementptr inbounds nuw i8, ptr %0, i64 16
  %6 = load i64, ptr %5, align 8, !tbaa !4
  %.not = icmp eq i64 %6, ptrtoint (ptr @lzma_index_decoder_init to i64)
  br i1 %.not, label %8, label %7

7:                                                ; preds = %4
  tail call void @lzma_next_end(ptr noundef nonnull %0, ptr noundef %1) #6
  br label %8

8:                                                ; preds = %7, %4
  store i64 ptrtoint (ptr @lzma_index_decoder_init to i64), ptr %5, align 8, !tbaa !4
  %9 = icmp eq ptr %2, null
  br i1 %9, label %index_decoder_reset.exit, label %10

10:                                               ; preds = %8
  %11 = load ptr, ptr %0, align 8, !tbaa !10
  %12 = icmp eq ptr %11, null
  br i1 %12, label %13, label %21

13:                                               ; preds = %10
  %14 = tail call ptr @lzma_alloc(i64 noundef 72, ptr noundef %1) #6
  %15 = icmp eq ptr %14, null
  br i1 %15, label %index_decoder_reset.exit, label %16

16:                                               ; preds = %13
  store ptr %14, ptr %0, align 8, !tbaa !10
  %17 = getelementptr inbounds nuw i8, ptr %0, i64 24
  store ptr @index_decode, ptr %17, align 8, !tbaa !11
  %18 = getelementptr inbounds nuw i8, ptr %0, i64 32
  store ptr @index_decoder_end, ptr %18, align 8, !tbaa !12
  %19 = getelementptr inbounds nuw i8, ptr %0, i64 56
  store ptr @index_decoder_memconfig, ptr %19, align 8, !tbaa !13
  %20 = getelementptr inbounds nuw i8, ptr %14, i64 16
  store ptr null, ptr %20, align 8, !tbaa !14
  br label %24

21:                                               ; preds = %10
  %22 = getelementptr inbounds nuw i8, ptr %11, i64 16
  %23 = load ptr, ptr %22, align 8, !tbaa !14
  tail call void @lzma_index_end(ptr noundef %23, ptr noundef %1) #6
  br label %24

24:                                               ; preds = %21, %16
  %.0 = phi ptr [ %14, %16 ], [ %11, %21 ]
  %25 = getelementptr inbounds nuw i8, ptr %.0, i64 24
  store ptr %2, ptr %25, align 8, !tbaa !19
  store ptr null, ptr %2, align 8, !tbaa !20
  %26 = tail call ptr @lzma_index_init(ptr noundef %1) #6
  %27 = getelementptr inbounds nuw i8, ptr %.0, i64 16
  store ptr %26, ptr %27, align 8, !tbaa !14
  %28 = icmp eq ptr %26, null
  br i1 %28, label %index_decoder_reset.exit, label %29

29:                                               ; preds = %24
  store i32 0, ptr %.0, align 8, !tbaa !21
  %30 = tail call i64 @llvm.umax.i64(i64 %3, i64 1)
  %31 = getelementptr inbounds nuw i8, ptr %.0, i64 8
  store i64 %30, ptr %31, align 8, !tbaa !22
  %32 = getelementptr inbounds nuw i8, ptr %.0, i64 32
  store i64 0, ptr %32, align 8, !tbaa !23
  %33 = getelementptr inbounds nuw i8, ptr %.0, i64 56
  store i64 0, ptr %33, align 8, !tbaa !24
  %34 = getelementptr inbounds nuw i8, ptr %.0, i64 64
  store i32 0, ptr %34, align 8, !tbaa !25
  br label %index_decoder_reset.exit

index_decoder_reset.exit:                         ; preds = %29, %24, %13, %8
  %.021 = phi i32 [ 11, %8 ], [ 5, %13 ], [ 0, %29 ], [ 5, %24 ]
  ret i32 %.021
}